target datalayout = "e-m:e-p270:32:32-p271:32:32-p272:64:64-i64:64-i128:128-f80:128-n8:16:32:64-S128"
target triple = "x86_64-pc-linux-gnu"

%struct.Tim_Man_t_ = type { ptr, ptr, ptr, i32, i32, i32, i32, ptr, ptr }
%struct.Tim_Box_t_ = type { i32, i32, i32, i32, i32, i32, i32, [0 x i32] }
%struct.Tim_Obj_t_ = type { i32, i32, i32, i32, float, float }
%struct.Vec_Ptr_t_ = type { i32, i32, ptr }

; Function Attrs: inlinehint nounwind uwtable
define internal void @Vec_PtrGrow(ptr noundef %0, i32 noundef %1) #2 {
  %3 = alloca ptr, align 8
  %4 = alloca i32, align 4
  store ptr %0, ptr %3, align 8, !tbaa !33
  store i32 %1, ptr %4, align 4, !tbaa !8
  %5 = load ptr, ptr %3, align 8, !tbaa !33
  %6 = getelementptr inbounds nuw %struct.Vec_Ptr_t_, ptr %5, i32 0, i32 0
  %7 = load i32, ptr %6, align 8, !tbaa !36
  %8 = load i32, ptr %4, align 4, !tbaa !8
  %9 = icmp sge i32 %7, %8
  br i1 %9, label %10, label %11

10:                                               ; preds = %2
  br label %36

11:                                               ; preds = %2
  %12 = load ptr, ptr %3, align 8, !tbaa !33
  %13 = getelementptr inbounds nuw %struct.Vec_Ptr_t_, ptr %12, i32 0, i32 2
  %14 = load ptr, ptr %13, align 8, !tbaa !37
  %15 = icmp ne ptr %14, null
  br i1 %15, label %16, label %24

16:                                               ; preds = %11
  %17 = load ptr, ptr %3, align 8, !tbaa !33
  %18 = getelementptr inbounds nuw %struct.Vec_Ptr_t_, ptr %17, i32 0, i32 2
  %19 = load ptr, ptr %18, align 8, !tbaa !37
  %20 = load i32, ptr %4, align 4, !tbaa !8
  %21 = sext i32 %20 to i64
  %22 = mul i64 8, %21
  %23 = call ptr @realloc(ptr noundef %19, i64 noundef %22) #9
  br label %29

24:                                               ; preds = %11
  %25 = load i32, ptr %4, align 4, !tbaa !8
  %26 = sext i32 %25 to i64
  %27 = mul i64 8, %26
  %28 = call noalias ptr @malloc(i64 noundef %27) #8
  br label %29

29:                                               ; preds = %24, %16
  %30 = phi ptr [ %23, %16 ], [ %28, %24 ]
  %31 = load ptr, ptr %3, align 8, !tbaa !33
  %32 = getelementptr inbounds nuw %struct.Vec_Ptr_t_, ptr %31, i32 0, i32 2
  store ptr %30, ptr %32, align 8, !tbaa !37
  %33 = load i32, ptr %4, align 4, !tbaa !8
  %34 = load ptr, ptr %3, align 8, !tbaa !33
  %35 = getelementptr inbounds nuw %struct.Vec_Ptr_t_, ptr %34, i32 0, i32 0
  store i32 %33, ptr %35, align 8, !tbaa !36
  br label %36

36:                                               ; preds = %29, %10
  ret void
}

; Function Attrs: inlinehint nounwind uwtable
define internal void @Vec_PtrPush(ptr noundef %0, ptr noundef %1) #2 {
  %3 = alloca ptr, align 8
  %4 = alloca ptr, align 8
  store ptr %0, ptr %3, align 8, !tbaa !33
  store ptr %1, ptr %4, align 8, !tbaa !38
  %5 = load ptr, ptr %3, align 8, !tbaa !33
  %6 = getelementptr inbounds nuw %struct.Vec_Ptr_t_, ptr %5, i32 0, i32 1
  %7 = load i32, ptr %6, align 4, !tbaa !34
  %8 = load ptr, ptr %3, align 8, !tbaa !33
  %9 = getelementptr inbounds nuw %struct.Vec_Ptr_t_, ptr %8, i32 0, i32 0
  %10 = load i32, ptr %9, align 8, !tbaa !36
  %11 = icmp eq i32 %7, %10
  br i1 %11, label %12, label %26

12:                                               ; preds = %2
  %13 = load ptr, ptr %3, align 8, !tbaa !33
  %14 = getelementptr inbounds nuw %struct.Vec_Ptr_t_, ptr %13, i32 0, i32 0
  %15 = load i32, ptr %14, align 8, !tbaa !36
  %16 = icmp slt i32 %15, 16
  br i1 %16, label %17, label %19

17:                                               ; preds = %12
  %18 = load ptr, ptr %3, align 8, !tbaa !33
  call void @Vec_PtrGrow(ptr noundef %18, i32 noundef 16)
  br label %25

19:                                               ; preds = %12
  %20 = load ptr, ptr %3, align 8, !tbaa !33
  %21 = load ptr, ptr %3, align 8, !tbaa !33
  %22 = getelementptr inbounds nuw %struct.Vec_Ptr_t_, ptr %21, i32 0, i32 0
  %23 = load i32, ptr %22, align 8, !tbaa !36
  %24 = mul nsw i32 2, %23
  call void @Vec_PtrGrow(ptr noundef %20, i32 noundef %24)
  br label %25

25:                                               ; preds = %19, %17
  br label %26

26:                                               ; preds = %25, %2
  %27 = load ptr, ptr %4, align 8, !tbaa !38
  %28 = load ptr, ptr %3, align 8, !tbaa !33
  %29 = getelementptr inbounds nuw %struct.Vec_Ptr_t_, ptr %28, i32 0, i32 2
  %30 = load ptr, ptr %29, align 8, !tbaa !37
  %31 = load ptr, ptr %3, align 8, !tbaa !33
  %32 = getelementptr inbounds nuw %struct.Vec_Ptr_t_, ptr %31, i32 0, i32 1
  %33 = load i32, ptr %32, align 4, !tbaa !34
  %34 = add nsw i32 %33, 1
  store i32 %34, ptr %32, align 4, !tbaa !34
  %35 = sext i32 %33 to i64
  %36 = getelementptr inbounds ptr, ptr %30, i64 %35
  store ptr %27, ptr %36, align 8, !tbaa !38
  ret void
}

; Function Attrs: inlinehint nounwind uwtable
define internal i32 @Vec_PtrSize(ptr noundef %0) #2 {
  %2 = alloca ptr, align 8
  store ptr %0, ptr %2, align 8, !tbaa !33
  %3 = load ptr, ptr %2, align 8, !tbaa !33
  %4 = getelementptr inbounds nuw %struct.Vec_Ptr_t_, ptr %3, i32 0, i32 1
  %5 = load i32, ptr %4, align 4, !tbaa !34
  ret i32 %5
}

; Function Attrs: inlinehint nounwind uwtable
define internal ptr @Vec_PtrAlloc(i32 noundef %0) #2 {
  %2 = alloca i32, align 4
  %3 = alloca ptr, align 8
  store i32 %0, ptr %2, align 4, !tbaa !8
  call void @llvm.lifetime.start.p0(i64 8, ptr %3) #7
  %4 = call noalias ptr @malloc(i64 noundef 16) #8
  store ptr %4, ptr %3, align 8, !tbaa !33
  %5 = load i32, ptr %2, align 4, !tbaa !8
  %6 = icmp sgt i32 %5, 0
  br i1 %6, label %7, label %11

7:                                                ; preds = %1
  %8 = load i32, ptr %2, align 4, !tbaa !8
  %9 = icmp slt i32 %8, 8
  br i1 %9, label %10, label %11

10:                                               ; preds = %7
  store i32 8, ptr %2, align 4, !tbaa !8
  br label %11

11:                                               ; preds = %10, %7, %1
  %12 = load ptr, ptr %3, align 8, !tbaa !33
  %13 = getelementptr inbounds nuw %struct.Vec_Ptr_t_, ptr %12, i32 0, i32 1
  store i32 0, ptr %13, align 4, !tbaa !34
  %14 = load i32, ptr %2, align 4, !tbaa !8
  %15 = load ptr, ptr %3, align 8, !tbaa !33
  %16 = getelementptr inbounds nuw %struct.Vec_Ptr_t_, ptr %15, i32 0, i32 0
  store i32 %14, ptr %16, align 8, !tbaa !36
  %17 = load ptr, ptr %3, align 8, !tbaa !33
  %18 = getelementptr inbounds nuw %struct.Vec_Ptr_t_, ptr %17, i32 0, i32 0
  %19 = load i32, ptr %18, align 8, !tbaa !36
  %20 = icmp ne i32 %19, 0
  br i1 %20, label %21, label %28

21:                                               ; preds = %11
  %22 = load ptr, ptr %3, align 8, !tbaa !33
  %23 = getelementptr inbounds nuw %struct.Vec_Ptr_t_, ptr %22, i32 0, i32 0
  %24 = load i32, ptr %23, align 8, !tbaa !36
  %25 = sext i32 %24 to i64
  %26 = mul i64 8, %25
  %27 = call noalias ptr @malloc(i64 noundef %26) #8
  br label %29

28:                                               ; preds = %11
  br label %29

29:                                               ; preds = %28, %21
  %30 = phi ptr [ %27, %21 ], [ null, %28 ]
  %31 = load ptr, ptr %3, align 8, !tbaa !33
  %32 = getelementptr inbounds nuw %struct.Vec_Ptr_t_, ptr %31, i32 0, i32 2
  store ptr %30, ptr %32, align 8, !tbaa !37
  %33 = load ptr, ptr %3, align 8, !tbaa !33
  call void @llvm.lifetime.end.p0(i64 8, ptr %3) #7
  ret ptr %33
}

; Function Attrs: nounwind uwtable
define void @Tim_ManCreateBox(ptr noundef %0, i32 noundef %1, i32 noundef %2, i32 noundef %3, i32 noundef %4, i32 noundef %5, i32 noundef %6) #0 {
  %8 = alloca ptr, align 8
  %9 = alloca i32, align 4
  %10 = alloca i32, align 4
  %11 = alloca i32, align 4
  %12 = alloca i32, align 4
  %13 = alloca i32, align 4
  %14 = alloca i32, align 4
  %15 = alloca ptr, align 8
  %16 = alloca i32, align 4
  store ptr %0, ptr %8, align 8, !tbaa !3
  store i32 %1, ptr %9, align 4, !tbaa !8
  store i32 %2, ptr %10, align 4, !tbaa !8
  store i32 %3, ptr %11, align 4, !tbaa !8
  store i32 %4, ptr %12, align 4, !tbaa !8
  store i32 %5, ptr %13, align 4, !tbaa !8
  store i32 %6, ptr %14, align 4, !tbaa !8
  call void @llvm.lifetime.start.p0(i64 8, ptr %15) #7
  call void @llvm.lifetime.start.p0(i64 4, ptr %16) #7
  %17 = load ptr, ptr %8, align 8, !tbaa !3
  %18 = getelementptr inbounds nuw %struct.Tim_Man_t_, ptr %17, i32 0, i32 0
  %19 = load ptr, ptr %18, align 8, !tbaa !10
  %20 = icmp eq ptr %19, null
  br i1 %20, label %21, label %25

21:                                               ; preds = %7
  %22 = call ptr @Vec_PtrAlloc(i32 noundef 100)
  %23 = load ptr, ptr %8, align 8, !tbaa !3
  %24 = getelementptr inbounds nuw %struct.Tim_Man_t_, ptr %23, i32 0, i32 0
  store ptr %22, ptr %24, align 8, !tbaa !10
  br label %25

25:                                               ; preds = %21, %7
  %26 = load ptr, ptr %8, align 8, !tbaa !3
  %27 = getelementptr inbounds nuw %struct.Tim_Man_t_, ptr %26, i32 0, i32 2
  %28 = load ptr, ptr %27, align 8, !tbaa !15
  %29 = load i32, ptr %10, align 4, !tbaa !8
  %30 = load i32, ptr %12, align 4, !tbaa !8
  %31 = add nsw i32 %29, %30
  %32 = sext i32 %31 to i64
  %33 = mul i64 4, %32
  %34 = add i64 28, %33
  %35 = trunc i64 %34 to i32
  %36 = call ptr @Mem_FlexEntryFetch(ptr noundef %28, i32 noundef %35)
  store ptr %36, ptr %15, align 8, !tbaa !16
  %37 = load ptr, ptr %15, align 8, !tbaa !16
  call void @llvm.memset.p0.i64(ptr align 4 %37, i8 0, i64 28, i1 false)
  %38 = load ptr, ptr %8, align 8, !tbaa !3
  %39 = getelementptr inbounds nuw %struct.Tim_Man_t_, ptr %38, i32 0, i32 0
  %40 = load ptr, ptr %39, align 8, !tbaa !10
  %41 = call i32 @Vec_PtrSize(ptr noundef %40)
  %42 = load ptr, ptr %15, align 8, !tbaa !16
  %43 = getelementptr inbounds nuw %struct.Tim_Box_t_, ptr %42, i32 0, i32 0
  store i32 %41, ptr %43, align 4, !tbaa !18
  %44 = load ptr, ptr %8, align 8, !tbaa !3
  %45 = getelementptr inbounds nuw %struct.Tim_Man_t_, ptr %44, i32 0, i32 0
  %46 = load ptr, ptr %45, align 8, !tbaa !10
  %47 = load ptr, ptr %15, align 8, !tbaa !16
  call void @Vec_PtrPush(ptr noundef %46, ptr noundef %47)
  %48 = load i32, ptr %13, align 4, !tbaa !8
  %49 = load ptr, ptr %15, align 8, !tbaa !16
  %50 = getelementptr inbounds nuw %struct.Tim_Box_t_, ptr %49, i32 0, i32 4
  store i32 %48, ptr %50, align 4, !tbaa !20
  %51 = load i32, ptr %10, align 4, !tbaa !8
  %52 = load ptr, ptr %15, align 8, !tbaa !16
  %53 = getelementptr inbounds nuw %struct.Tim_Box_t_, ptr %52, i32 0, i32 2
  store i32 %51, ptr %53, align 4, !tbaa !21
  %54 = load i32, ptr %12, align 4, !tbaa !8
  %55 = load ptr, ptr %15, align 8, !tbaa !16
  %56 = getelementptr inbounds nuw %struct.Tim_Box_t_, ptr %55, i32 0, i32 3
  store i32 %54, ptr %56, align 4, !tbaa !22
  %57 = load i32, ptr %14, align 4, !tbaa !8
  %58 = load ptr, ptr %15, align 8, !tbaa !16
  %59 = getelementptr inbounds nuw %struct.Tim_Box_t_, ptr %58, i32 0, i32 6
  store i32 %57, ptr %59, align 4, !tbaa !23
  store i32 0, ptr %16, align 4, !tbaa !8
  br label %60

60:                                               ; preds = %95, %25
  %61 = load i32, ptr %16, align 4, !tbaa !8
  %62 = load i32, ptr %10, align 4, !tbaa !8
  %63 = icmp slt i32 %61, %62
  br i1 %63, label %64, label %98

64:                                               ; preds = %60
  %65 = load i32, ptr %9, align 4, !tbaa !8
  %66 = load i32, ptr %16, align 4, !tbaa !8
  %67 = add nsw i32 %65, %66
  %68 = load ptr, ptr %15, align 8, !tbaa !16
  %69 = getelementptr inbounds nuw %struct.Tim_Box_t_, ptr %68, i32 0, i32 7
  %70 = load i32, ptr %16, align 4, !tbaa !8
  %71 = sext i32 %70 to i64
  %72 = getelementptr inbounds [0 x i32], ptr %69, i64 0, i64 %71
  store i32 %67, ptr %72, align 4, !tbaa !8
  %73 = load ptr, ptr %15, align 8, !tbaa !16
  %74 = getelementptr inbounds nuw %struct.Tim_Box_t_, ptr %73, i32 0, i32 0
  %75 = load i32, ptr %74, align 4, !tbaa !18
  %76 = load ptr, ptr %8, align 8, !tbaa !3
  %77 = getelementptr inbounds nuw %struct.Tim_Man_t_, ptr %76, i32 0, i32 8
  %78 = load ptr, ptr %77, align 8, !tbaa !24
  %79 = load i32, ptr %9, align 4, !tbaa !8
  %80 = load i32, ptr %16, align 4, !tbaa !8
  %81 = add nsw i32 %79, %80
  %82 = sext i32 %81 to i64
  %83 = getelementptr inbounds %struct.Tim_Obj_t_, ptr %78, i64 %82
  %84 = getelementptr inbounds nuw %struct.Tim_Obj_t_, ptr %83, i32 0, i32 2
  store i32 %75, ptr %84, align 4, !tbaa !25
  %85 = load i32, ptr %16, align 4, !tbaa !8
  %86 = load ptr, ptr %8, align 8, !tbaa !3
  %87 = getelementptr inbounds nuw %struct.Tim_Man_t_, ptr %86, i32 0, i32 8
  %88 = load ptr, ptr %87, align 8, !tbaa !24
  %89 = load i32, ptr %9, align 4, !tbaa !8
  %90 = load i32, ptr %16, align 4, !tbaa !8
  %91 = add nsw i32 %89, %90
  %92 = sext i32 %91 to i64
  %93 = getelementptr inbounds %struct.Tim_Obj_t_, ptr %88, i64 %92
  %94 = getelementptr inbounds nuw %struct.Tim_Obj_t_, ptr %93, i32 0, i32 3
  store i32 %85, ptr %94, align 4, !tbaa !28
  br label %95

95:                                               ; preds = %64
  %96 = load i32, ptr %16, align 4, !tbaa !8
  %97 = add nsw i32 %96, 1
  store i32 %97, ptr %16, align 4, !tbaa !8
  br label %60, !llvm.loop !29

98:                                               ; preds = %60
  store i32 0, ptr %16, align 4, !tbaa !8
  br label %99

99:                                               ; preds = %136, %98
  %100 = load i32, ptr %16, align 4, !tbaa !8
  %101 = load i32, ptr %12, align 4, !tbaa !8
  %102 = icmp slt i32 %100, %101
  br i1 %102, label %103, label %139

103:                                              ; preds = %99
  %104 = load i32, ptr %11, align 4, !tbaa !8
  %105 = load i32, ptr %16, align 4, !tbaa !8
  %106 = add nsw i32 %104, %105
  %107 = load ptr, ptr %15, align 8, !tbaa !16
  %108 = getelementptr inbounds nuw %struct.Tim_Box_t_, ptr %107, i32 0, i32 7
  %109 = load i32, ptr %10, align 4, !tbaa !8
  %110 = load i32, ptr %16, align 4, !tbaa !8
  %111 = add nsw i32 %109, %110
  %112 = sext i32 %111 to i64
  %113 = getelementptr inbounds [0 x i32], ptr %108, i64 0, i64 %112
  store i32 %106, ptr %113, align 4, !tbaa !8
  %114 = load ptr, ptr %15, align 8, !tbaa !16
  %115 = getelementptr inbounds nuw %struct.Tim_Box_t_, ptr %114, i32 0, i32 0
  %116 = load i32, ptr %115, align 4, !tbaa !18
  %117 = load ptr, ptr %8, align 8, !tbaa !3
  %118 = getelementptr inbounds nuw %struct.Tim_Man_t_, ptr %117, i32 0, i32 7
  %119 = load ptr, ptr %118, align 8, !tbaa !31
  %120 = load i32, ptr %11, align 4, !tbaa !8
  %121 = load i32, ptr %16, align 4, !tbaa !8
  %122 = add nsw i32 %120, %121
  %123 = sext i32 %122 to i64
  %124 = getelementptr inbounds %struct.Tim_Obj_t_, ptr %119, i64 %123
  %125 = getelementptr inbounds nuw %struct.Tim_Obj_t_, ptr %124, i32 0, i32 2
  store i32 %116, ptr %125, align 4, !tbaa !25
  %126 = load i32, ptr %16, align 4, !tbaa !8
  %127 = load ptr, ptr %8, align 8, !tbaa !3
  %128 = getelementptr inbounds nuw %struct.Tim_Man_t_, ptr %127, i32 0, i32 7
  %129 = load ptr, ptr %128, align 8, !tbaa !31
  %130 = load i32, ptr %11, align 4, !tbaa !8
  %131 = load i32, ptr %16, align 4, !tbaa !8
  %132 = add nsw i32 %130, %131
  %133 = sext i32 %132 to i64
  %134 = getelementptr inbounds %struct.Tim_Obj_t_, ptr %129, i64 %133
  %135 = getelementptr inbounds nuw %struct.Tim_Obj_t_, ptr %134, i32 0, i32 3
  store i32 %126, ptr %135, align 4, !tbaa !28
  br label %136

136:                                              ; preds = %103
  %137 = load i32, ptr %16, align 4, !tbaa !8
  %138 = add nsw i32 %137, 1
  store i32 %138, ptr %16, align 4, !tbaa !8
  br label %99, !llvm.loop !32

139:                                              ; preds = %99
  call void @llvm.lifetime.end.p0(i64 4, ptr %16) #7
  call void @llvm.lifetime.end.p0(i64 8, ptr %15) #7
  ret void
}