; Function Attrs: nounwind uwtable
define void @Tim_ManCreateBox(ptr noundef captures(none) %0, i32 noundef %1, i32 noundef %2, i32 noundef %3, i32 noundef %4, i32 noundef %5, i32 noundef %6) local_unnamed_addr #0 {
  %8 = load ptr, ptr %0, align 8, !tbaa !3
  %9 = icmp eq ptr %8, null
  br i1 %9, label %10, label %15

10:                                               ; preds = %7
  %11 = tail call noalias dereferenceable_or_null(16) ptr @malloc(i64 noundef 16) #7
  %12 = getelementptr inbounds nuw i8, ptr %11, i64 4
  store i32 0, ptr %12, align 4, !tbaa !12
  store i32 100, ptr %11, align 8, !tbaa !14
  %13 = tail call noalias dereferenceable_or_null(800) ptr @malloc(i64 noundef 800) #7
  %14 = getelementptr inbounds nuw i8, ptr %11, i64 8
  store ptr %13, ptr %14, align 8, !tbaa !15
  store ptr %11, ptr %0, align 8, !tbaa !3
  br label %15

15:                                               ; preds = %10, %7
  %16 = getelementptr inbounds nuw i8, ptr %0, i64 16
  %17 = load ptr, ptr %16, align 8, !tbaa !16
  %18 = add nsw i32 %4, %2
  %19 = shl i32 %18, 2
  %20 = add i32 %19, 28
  %21 = tail call ptr @Mem_FlexEntryFetch(ptr noundef %17, i32 noundef %20) #8
  tail call void @llvm.memset.p0.i64(ptr noundef nonnull align 4 dereferenceable(28) %21, i8 0, i64 28, i1 false)
  %22 = load ptr, ptr %0, align 8, !tbaa !3
  %23 = getelementptr i8, ptr %22, i64 4
  %.val = load i32, ptr %23, align 4, !tbaa !12
  store i32 %.val, ptr %21, align 4, !tbaa !17
  %24 = load i32, ptr %22, align 8, !tbaa !14
  %25 = icmp eq i32 %.val, %24
  br i1 %25, label %26, label %.Vec_PtrGrow.exit11_crit_edge.i

.Vec_PtrGrow.exit11_crit_edge.i:                  ; preds = %15
  %.phi.trans.insert.i = getelementptr inbounds nuw i8, ptr %22, i64 8
  %.pre.i = load ptr, ptr %.phi.trans.insert.i, align 8, !tbaa !15
  br label %Vec_PtrPush.exit

26:                                               ; preds = %15
  %27 = icmp slt i32 %.val, 16
  br i1 %27, label %28, label %36

28:                                               ; preds = %26
  %29 = getelementptr inbounds nuw i8, ptr %22, i64 8
  %30 = load ptr, ptr %29, align 8, !tbaa !15
  %.not9.i.i = icmp eq ptr %30, null
  br i1 %.not9.i.i, label %33, label %31

31:                                               ; preds = %28
  %32 = tail call dereferenceable_or_null(128) ptr @realloc(ptr noundef nonnull %30, i64 noundef 128) #9
  br label %Vec_PtrGrow.exit.i

33:                                               ; preds = %28
  %34 = tail call noalias dereferenceable_or_null(128) ptr @malloc(i64 noundef 128) #7
  br label %Vec_PtrGrow.exit.i

Vec_PtrGrow.exit.i:                               ; preds = %33, %31
  %35 = phi ptr [ %32, %31 ], [ %34, %33 ]
  store ptr %35, ptr %29, align 8, !tbaa !15
  store i32 16, ptr %22, align 8, !tbaa !14
  br label %Vec_PtrPush.exit

36:                                               ; preds = %26
  %37 = shl nuw nsw i32 %.val, 1
  %38 = getelementptr inbounds nuw i8, ptr %22, i64 8
  %39 = load ptr, ptr %38, align 8, !tbaa !15
  %.not9.i10.i = icmp eq ptr %39, null
  %40 = zext nneg i32 %37 to i64
  %41 = shl nuw nsw i64 %40, 3
  br i1 %.not9.i10.i, label %44, label %42

42:                                               ; preds = %36
  %43 = tail call ptr @realloc(ptr noundef nonnull %39, i64 noundef %41) #9
  br label %46

44:                                               ; preds = %36
  %45 = tail call noalias ptr @malloc(i64 noundef %41) #7
  br label %46

46:                                               ; preds = %44, %42
  %47 = phi ptr [ %43, %42 ], [ %45, %44 ]
  store ptr %47, ptr %38, align 8, !tbaa !15
  store i32 %37, ptr %22, align 8, !tbaa !14
  br label %Vec_PtrPush.exit

Vec_PtrPush.exit:                                 ; preds = %.Vec_PtrGrow.exit11_crit_edge.i, %Vec_PtrGrow.exit.i, %46
  %48 = phi ptr [ %.pre.i, %.Vec_PtrGrow.exit11_crit_edge.i ], [ %47, %46 ], [ %35, %Vec_PtrGrow.exit.i ]
  %49 = load i32, ptr %23, align 4, !tbaa !12
  %50 = add nsw i32 %49, 1
  store i32 %50, ptr %23, align 4, !tbaa !12
  %51 = sext i32 %49 to i64
  %52 = getelementptr inbounds ptr, ptr %48, i64 %51
  store ptr %21, ptr %52, align 8, !tbaa !19
  %53 = getelementptr inbounds nuw i8, ptr %21, i64 16
  store i32 %5, ptr %53, align 4, !tbaa !20
  %54 = getelementptr inbounds nuw i8, ptr %21, i64 8
  store i32 %2, ptr %54, align 4, !tbaa !21
  %55 = getelementptr inbounds nuw i8, ptr %21, i64 12
  store i32 %4, ptr %55, align 4, !tbaa !22
  %56 = getelementptr inbounds nuw i8, ptr %21, i64 24
  store i32 %6, ptr %56, align 4, !tbaa !23
  %57 = icmp sgt i32 %2, 0
  br i1 %57, label %.lr.ph, label %.preheader

.lr.ph:                                           ; preds = %Vec_PtrPush.exit
  %58 = getelementptr inbounds nuw i8, ptr %21, i64 28
  %59 = getelementptr inbounds nuw i8, ptr %0, i64 48
  %60 = load ptr, ptr %59, align 8, !tbaa !24
  %61 = sext i32 %1 to i64
  %wide.trip.count = zext nneg i32 %2 to i64
  %.pre = load i32, ptr %21, align 4, !tbaa !17
  br label %68

.preheader:                                       ; preds = %68, %Vec_PtrPush.exit
  %62 = icmp sgt i32 %4, 0
  br i1 %62, label %.lr.ph51, label %._crit_edge

.lr.ph51:                                         ; preds = %.preheader
  %63 = getelementptr inbounds nuw i8, ptr %21, i64 28
  %64 = getelementptr inbounds nuw i8, ptr %0, i64 40
  %65 = load ptr, ptr %64, align 8, !tbaa !25
  %66 = sext i32 %3 to i64
  %67 = sext i32 %2 to i64
  %wide.trip.count56 = zext nneg i32 %4 to i64
  br label %75

68:                                               ; preds = %.lr.ph, %68
  %indvars.iv = phi i64 [ 0, %.lr.ph ], [ %indvars.iv.next, %68 ]
  %69 = add nsw i64 %indvars.iv, %61
  %70 = getelementptr inbounds nuw [0 x i32], ptr %58, i64 0, i64 %indvars.iv
  %71 = trunc nsw i64 %69 to i32
  store i32 %71, ptr %70, align 4, !tbaa !26
  %72 = getelementptr inbounds %struct.Tim_Obj_t_, ptr %60, i64 %69, i32 2
  store i32 %.pre, ptr %72, align 4, !tbaa !27
  %73 = getelementptr inbounds %struct.Tim_Obj_t_, ptr %60, i64 %69, i32 3
  %74 = trunc nuw nsw i64 %indvars.iv to i32
  store i32 %74, ptr %73, align 4, !tbaa !30
  %indvars.iv.next = add nuw nsw i64 %indvars.iv, 1
  %exitcond.not = icmp eq i64 %indvars.iv.next, %wide.trip.count
  br i1 %exitcond.not, label %.preheader, label %68, !llvm.loop !31

75:                                               ; preds = %.lr.ph51, %75
  %indvars.iv53 = phi i64 [ 0, %.lr.ph51 ], [ %indvars.iv.next54, %75 ]
  %76 = add nsw i64 %indvars.iv53, %66
  %77 = add nsw i64 %indvars.iv53, %67
  %78 = getelementptr inbounds [0 x i32], ptr %63, i64 0, i64 %77
  %79 = trunc nsw i64 %76 to i32
  store i32 %79, ptr %78, align 4, !tbaa !26
  %80 = load i32, ptr %21, align 4, !tbaa !17
  %81 = getelementptr inbounds %struct.Tim_Obj_t_, ptr %65, i64 %76, i32 2
  store i32 %80, ptr %81, align 4, !tbaa !27
  %82 = getelementptr inbounds %struct.Tim_Obj_t_, ptr %65, i64 %76, i32 3
  %83 = trunc nuw nsw i64 %indvars.iv53 to i32
  store i32 %83, ptr %82, align 4, !tbaa !30
  %indvars.iv.next54 = add nuw nsw i64 %indvars.iv53, 1
  %exitcond57.not = icmp eq i64 %indvars.iv.next54, %wide.trip.count56
  br i1 %exitcond57.not, label %._crit_edge, label %75, !llvm.loop !33

._crit_edge:                                      ; preds = %75, %.preheader
  ret void
}